target datalayout = "e-m:e-p270:32:32-p271:32:32-p272:64:64-i64:64-i128:128-f80:128-n8:16:32:64-S128"
target triple = "x86_64-pc-linux-gnu"

@proto_register_pagp.ett = internal global [3 x ptr] [ptr @ett_pagp, ptr @ett_pagp_flags, ptr @ett_pagp_tlvs], align 16
@.str.78 = private unnamed_addr constant [26 x i8] c"Port Aggregation Protocol\00", align 1
@.str.79 = private unnamed_addr constant [5 x i8] c"PAGP\00", align 1
@.str.80 = private unnamed_addr constant [5 x i8] c"pagp\00", align 1
@proto_pagp = internal global i32 0, align 4
@pagp_handle = internal global ptr null, align 8

; Function Attrs: null_pointer_is_valid sspstrong uwtable
define hidden void @proto_register_pagp() #0 {
  %1 = alloca ptr, align 8
  call void @llvm.lifetime.start.p0(i64 8, ptr %1) #3
  %2 = call i32 @proto_register_protocol(ptr noundef @.str.78, ptr noundef @.str.79, ptr noundef @.str.80)
  store i32 %2, ptr @proto_pagp, align 4
  %3 = load i32, ptr @proto_pagp, align 4
  call void @proto_register_field_array(i32 noundef %3, ptr noundef @proto_register_pagp.hf, i32 noundef 27)
  call void @proto_register_subtree_array(ptr noundef @proto_register_pagp.ett, i32 noundef 3)
  %4 = load i32, ptr @proto_pagp, align 4
  %5 = call ptr @expert_register_protocol(i32 noundef %4)
  store ptr %5, ptr %1, align 8
  %6 = load ptr, ptr %1, align 8
  call void @expert_register_field_array(ptr noundef %6, ptr noundef @proto_register_pagp.ei, i32 noundef 1)
  %7 = load i32, ptr @proto_pagp, align 4
  %8 = call ptr @register_dissector(ptr noundef @.str.80, ptr noundef @dissect_pagp, i32 noundef %7)
  store ptr %8, ptr @pagp_handle, align 8
  call void @llvm.lifetime.end.p0(i64 8, ptr %1) #3
  ret void
}