; Function Attrs: null_pointer_is_valid sspstrong uwtable
define hidden void @proto_register_pagp() local_unnamed_addr #0 {
  %1 = tail call i32 @proto_register_protocol(ptr noundef nonnull @.str.78, ptr noundef nonnull @.str.79, ptr noundef nonnull @.str.80)
  store i32 %1, ptr @proto_pagp, align 4
  tail call void @proto_register_field_array(i32 noundef %1, ptr noundef nonnull @proto_register_pagp.hf, i32 noundef 27)
  tail call void @proto_register_subtree_array(ptr noundef nonnull @proto_register_pagp.ett, i32 noundef 3)
  %2 = load i32, ptr @proto_pagp, align 4
  %3 = tail call ptr @expert_register_protocol(i32 noundef %2)
  tail call void @expert_register_field_array(ptr noundef %3, ptr noundef nonnull @proto_register_pagp.ei, i32 noundef 1)
  %4 = load i32, ptr @proto_pagp, align 4
  %5 = tail call ptr @register_dissector(ptr noundef nonnull @.str.80, ptr noundef nonnull @dissect_pagp, i32 noundef %4)
  store ptr %5, ptr @pagp_handle, align 8
  ret void
}